target datalayout = "e-m:e-p270:32:32-p271:32:32-p272:64:64-i64:64-i128:128-f80:128-n8:16:32:64-S128"
target triple = "x86_64-pc-linux-gnu"

%"struct.std::_Rb_tree_iterator" = type { ptr }
%"struct.google::protobuf::internal::ExtensionSet::Extension" = type { %union.anon, i8, i8, i8, i8, i32, ptr }
%union.anon = type { i64 }
%class.anon.16 = type { ptr }
%"struct.std::_Rb_tree_node_base" = type { i32, ptr, ptr, ptr }
%"struct.std::pair.36" = type { i32, %"struct.google::protobuf::internal::ExtensionSet::Extension" }
%"struct.std::_Rb_tree_node" = type { %"struct.std::_Rb_tree_node_base", %"struct.__gnu_cxx::__aligned_membuf" }
%"struct.__gnu_cxx::__aligned_membuf" = type { [32 x i8] }

; Function Attrs: mustprogress nounwind uwtable
define linkonce_odr hidden noundef ptr @_ZN9__gnu_cxx16__aligned_membufISt4pairIKiN6google8protobuf8internal12ExtensionSet9ExtensionEEE7_M_addrEv(ptr noundef nonnull align 8 dereferenceable(32) %0) #9 comdat align 2 {
  %2 = alloca ptr, align 8
  store ptr %0, ptr %2, align 8, !tbaa !318
  %3 = load ptr, ptr %2, align 8
  %4 = getelementptr inbounds nuw %"struct.__gnu_cxx::__aligned_membuf", ptr %3, i32 0, i32 0
  ret ptr %4
}

; Function Attrs: mustprogress nounwind uwtable
define linkonce_odr hidden noundef ptr @_ZN9__gnu_cxx16__aligned_membufISt4pairIKiN6google8protobuf8internal12ExtensionSet9ExtensionEEE6_M_ptrEv(ptr noundef nonnull align 8 dereferenceable(32) %0) #9 comdat align 2 {
  %2 = alloca ptr, align 8
  store ptr %0, ptr %2, align 8, !tbaa !318
  %3 = load ptr, ptr %2, align 8
  %4 = call noundef ptr @_ZN9__gnu_cxx16__aligned_membufISt4pairIKiN6google8protobuf8internal12ExtensionSet9ExtensionEEE7_M_addrEv(ptr noundef nonnull align 8 dereferenceable(32) %3) #3
  ret ptr %4
}

; Function Attrs: noinline noreturn nounwind uwtable
define linkonce_odr hidden void @__clang_call_terminate(ptr noundef %0) #15 comdat {
  %2 = call ptr @__cxa_begin_catch(ptr %0) #3
  call void @_ZSt9terminatev() #23
  unreachable
}

; Function Attrs: mustprogress nounwind uwtable
define linkonce_odr hidden noundef ptr @_ZNSt13_Rb_tree_nodeISt4pairIKiN6google8protobuf8internal12ExtensionSet9ExtensionEEE9_M_valptrEv(ptr noundef nonnull align 8 dereferenceable(64) %0) #9 comdat align 2 {
  %2 = alloca ptr, align 8
  store ptr %0, ptr %2, align 8, !tbaa !316
  %3 = load ptr, ptr %2, align 8
  %4 = getelementptr inbounds nuw %"struct.std::_Rb_tree_node", ptr %3, i32 0, i32 1
  %5 = call noundef ptr @_ZN9__gnu_cxx16__aligned_membufISt4pairIKiN6google8protobuf8internal12ExtensionSet9ExtensionEEE6_M_ptrEv(ptr noundef nonnull align 8 dereferenceable(32) %4) #3
  ret ptr %5
}

; Function Attrs: mustprogress nounwind uwtable
define linkonce_odr hidden noundef nonnull align 8 dereferenceable(8) ptr @_ZNSt17_Rb_tree_iteratorISt4pairIKiN6google8protobuf8internal12ExtensionSet9ExtensionEEEppEv(ptr noundef nonnull align 8 dereferenceable(8) %0) #9 comdat align 2 {
  %2 = alloca ptr, align 8
  store ptr %0, ptr %2, align 8, !tbaa !293
  %3 = load ptr, ptr %2, align 8
  %4 = getelementptr inbounds nuw %"struct.std::_Rb_tree_iterator", ptr %3, i32 0, i32 0
  %5 = load ptr, ptr %4, align 8, !tbaa !295
  %6 = call noundef ptr @_ZSt18_Rb_tree_incrementPSt18_Rb_tree_node_base(ptr noundef %5) #25
  %7 = getelementptr inbounds nuw %"struct.std::_Rb_tree_iterator", ptr %3, i32 0, i32 0
  store ptr %6, ptr %7, align 8, !tbaa !295
  ret ptr %3
}

; Function Attrs: inlinehint mustprogress uwtable
define internal void @"_ZZNK6google8protobuf8internal12ExtensionSet26SpaceUsedExcludingSelfLongEvENK3$_0clEiRKNS2_9ExtensionE"(ptr noundef nonnull align 8 dereferenceable(8) %0, i32 noundef %1, ptr noundef nonnull align 8 dereferenceable(24) %2) #6 align 2 {
  %4 = alloca ptr, align 8
  %5 = alloca i32, align 4
  %6 = alloca ptr, align 8
  store ptr %0, ptr %4, align 8, !tbaa !76
  store i32 %1, ptr %5, align 4, !tbaa !10
  store ptr %2, ptr %6, align 8, !tbaa !44
  %7 = load ptr, ptr %4, align 8
  %8 = load ptr, ptr %6, align 8, !tbaa !44
  %9 = call noundef i64 @_ZNK6google8protobuf8internal12ExtensionSet9Extension26SpaceUsedExcludingSelfLongEv(ptr noundef nonnull align 8 dereferenceable(24) %8)
  %10 = getelementptr inbounds nuw %class.anon.16, ptr %7, i32 0, i32 0
  %11 = load ptr, ptr %10, align 8, !tbaa !393
  %12 = load i64, ptr %11, align 8, !tbaa !27
  %13 = add i64 %12, %9
  store i64 %13, ptr %11, align 8, !tbaa !27
  ret void
}

; Function Attrs: mustprogress nounwind uwtable
define linkonce_odr hidden noundef ptr @_ZNKSt17_Rb_tree_iteratorISt4pairIKiN6google8protobuf8internal12ExtensionSet9ExtensionEEEptEv(ptr noundef nonnull align 8 dereferenceable(8) %0) #9 comdat align 2 personality ptr @__gxx_personality_v0 {
  %2 = alloca ptr, align 8
  store ptr %0, ptr %2, align 8, !tbaa !293
  %3 = load ptr, ptr %2, align 8
  %4 = getelementptr inbounds nuw %"struct.std::_Rb_tree_iterator", ptr %3, i32 0, i32 0
  %5 = load ptr, ptr %4, align 8, !tbaa !295
  %6 = invoke noundef ptr @_ZNSt13_Rb_tree_nodeISt4pairIKiN6google8protobuf8internal12ExtensionSet9ExtensionEEE9_M_valptrEv(ptr noundef nonnull align 8 dereferenceable(64) %5)
          to label %7 unwind label %8

7:                                                ; preds = %1
  ret ptr %6

8:                                                ; preds = %1
  %9 = landingpad { ptr, i32 }
          catch ptr null
  %10 = extractvalue { ptr, i32 } %9, 0
  call void @__clang_call_terminate(ptr %10) #23
  unreachable
}

; Function Attrs: mustprogress nounwind uwtable
define linkonce_odr noundef zeroext i1 @_ZStneRKSt17_Rb_tree_iteratorISt4pairIKiN6google8protobuf8internal12ExtensionSet9ExtensionEEESA_(ptr noundef nonnull align 8 dereferenceable(8) %0, ptr noundef nonnull align 8 dereferenceable(8) %1) #9 comdat {
  %3 = alloca ptr, align 8
  %4 = alloca ptr, align 8
  store ptr %0, ptr %3, align 8, !tbaa !293
  store ptr %1, ptr %4, align 8, !tbaa !293
  %5 = load ptr, ptr %3, align 8, !tbaa !293
  %6 = getelementptr inbounds nuw %"struct.std::_Rb_tree_iterator", ptr %5, i32 0, i32 0
  %7 = load ptr, ptr %6, align 8, !tbaa !295
  %8 = load ptr, ptr %4, align 8, !tbaa !293
  %9 = getelementptr inbounds nuw %"struct.std::_Rb_tree_iterator", ptr %8, i32 0, i32 0
  %10 = load ptr, ptr %9, align 8, !tbaa !295
  %11 = icmp ne ptr %7, %10
  ret i1 %11
}

; Function Attrs: mustprogress uwtable
define internal ptr @"_ZN6google8protobuf8internal12ExtensionSet7ForEachISt17_Rb_tree_iteratorISt4pairIKiNS2_9ExtensionEEEZNKS2_26SpaceUsedExcludingSelfLongEvE3$_0EET0_T_SC_SB_"(ptr %0, ptr %1, ptr %2) #4 align 2 {
  %4 = alloca %class.anon.16, align 8
  %5 = alloca %"struct.std::_Rb_tree_iterator", align 8
  %6 = alloca %"struct.std::_Rb_tree_iterator", align 8
  %7 = alloca %class.anon.16, align 8
  %8 = alloca %"struct.std::_Rb_tree_iterator", align 8
  %9 = getelementptr inbounds nuw %"struct.std::_Rb_tree_iterator", ptr %5, i32 0, i32 0
  store ptr %0, ptr %9, align 8
  %10 = getelementptr inbounds nuw %"struct.std::_Rb_tree_iterator", ptr %6, i32 0, i32 0
  store ptr %1, ptr %10, align 8
  %11 = getelementptr inbounds nuw %class.anon.16, ptr %7, i32 0, i32 0
  store ptr %2, ptr %11, align 8
  call void @llvm.lifetime.start.p0(i64 8, ptr %8) #3
  call void @llvm.memcpy.p0.p0.i64(ptr align 8 %8, ptr align 8 %5, i64 8, i1 false), !tbaa.struct !283
  br label %12

12:                                               ; preds = %21, %3
  %13 = call noundef zeroext i1 @_ZStneRKSt17_Rb_tree_iteratorISt4pairIKiN6google8protobuf8internal12ExtensionSet9ExtensionEEESA_(ptr noundef nonnull align 8 dereferenceable(8) %8, ptr noundef nonnull align 8 dereferenceable(8) %6) #3
  br i1 %13, label %15, label %14

14:                                               ; preds = %12
  call void @llvm.lifetime.end.p0(i64 8, ptr %8) #3
  br label %23

15:                                               ; preds = %12
  %16 = call noundef ptr @_ZNKSt17_Rb_tree_iteratorISt4pairIKiN6google8protobuf8internal12ExtensionSet9ExtensionEEEptEv(ptr noundef nonnull align 8 dereferenceable(8) %8) #3
  %17 = getelementptr inbounds nuw %"struct.std::pair.36", ptr %16, i32 0, i32 0
  %18 = load i32, ptr %17, align 8, !tbaa !285
  %19 = call noundef ptr @_ZNKSt17_Rb_tree_iteratorISt4pairIKiN6google8protobuf8internal12ExtensionSet9ExtensionEEEptEv(ptr noundef nonnull align 8 dereferenceable(8) %8) #3
  %20 = getelementptr inbounds nuw %"struct.std::pair.36", ptr %19, i32 0, i32 1
  call void @"_ZZNK6google8protobuf8internal12ExtensionSet26SpaceUsedExcludingSelfLongEvENK3$_0clEiRKNS2_9ExtensionE"(ptr noundef nonnull align 8 dereferenceable(8) %7, i32 noundef %18, ptr noundef nonnull align 8 dereferenceable(24) %20)
  br label %21

21:                                               ; preds = %15
  %22 = call noundef nonnull align 8 dereferenceable(8) ptr @_ZNSt17_Rb_tree_iteratorISt4pairIKiN6google8protobuf8internal12ExtensionSet9ExtensionEEEppEv(ptr noundef nonnull align 8 dereferenceable(8) %8) #3
  br label %12, !llvm.loop !391

23:                                               ; preds = %14
  call void @llvm.memcpy.p0.p0.i64(ptr align 8 %4, ptr align 8 %7, i64 8, i1 false), !tbaa.struct !156
  %24 = getelementptr inbounds nuw %class.anon.16, ptr %4, i32 0, i32 0
  %25 = load ptr, ptr %24, align 8
  ret ptr %25
}