; Function Attrs: mustprogress uwtable
define internal fastcc nonnull ptr @"_ZN6google8protobuf8internal12ExtensionSet7ForEachISt17_Rb_tree_iteratorISt4pairIKiNS2_9ExtensionEEEZNKS2_26SpaceUsedExcludingSelfLongEvE3$_0EET0_T_SC_SB_"(ptr readonly %0, ptr readnone %1, ptr nonnull returned %2) unnamed_addr #3 align 2 personality ptr @__gxx_personality_v0 {
  %.not7 = icmp eq ptr %0, %1
  br i1 %.not7, label %._crit_edge, label %.lr.ph

._crit_edge:                                      ; preds = %.lr.ph, %3
  ret ptr %2

.lr.ph:                                           ; preds = %3, %.lr.ph
  %.sroa.0.08 = phi ptr [ %8, %.lr.ph ], [ %0, %3 ]
  %4 = getelementptr inbounds nuw i8, ptr %.sroa.0.08, i64 40
  %5 = tail call noundef i64 @_ZNK6google8protobuf8internal12ExtensionSet9Extension26SpaceUsedExcludingSelfLongEv(ptr noundef nonnull readonly align 8 dereferenceable(24) %4)
  %6 = load i64, ptr %2, align 8, !tbaa !150
  %7 = add i64 %6, %5
  store i64 %7, ptr %2, align 8, !tbaa !150
  %8 = tail call noundef ptr @_ZSt18_Rb_tree_incrementPSt18_Rb_tree_node_base(ptr noundef %.sroa.0.08) #20
  %.not = icmp eq ptr %8, %1
  br i1 %.not, label %._crit_edge, label %.lr.ph, !llvm.loop !209
}